target datalayout = "e-m:e-p270:32:32-p271:32:32-p272:64:64-i64:64-i128:128-f80:128-n8:16:32:64-S128"
target triple = "x86_64-pc-linux-gnu"

%struct.global_stats = type { ptr, i64, ptr, i64, ptr }
%struct._win_st = type { i16, i16, i16, i16, i16, i16, i16, i32, i32, i8, i8, i8, i8, i8, i8, i8, i8, i8, i32, ptr, i16, i16, i32, i32, ptr, %struct.pdat, i16, %struct.cchar_t, i32 }
%struct.pdat = type { i16, i16, i16, i16, i16, i16 }
%struct.cchar_t = type { i32, [5 x i32], i32 }

@global = internal global %struct.global_stats zeroinitializer, align 8
@stdscr = external global ptr, align 8
@queue_header = internal global ptr null, align 8
@multi_queue_header = internal global ptr null, align 8
@clamd_header = internal global ptr null, align 8
@stderr = external global ptr, align 8
@.str.11 = private unnamed_addr constant [111 x i8] c"generated/home/dtcxzyw/WorkSpace/Projects/compilers/llvm-opt-benchmark/bench/clamav/clamav/clamdtop/clamdtop.c\00", align 1
@maxx = internal global i32 0, align 4
@.str.115 = private unnamed_addr constant [29 x i8] c"Failed to get terminal size\0A\00", align 1
@maxy = internal global i32 0, align 4
@__PRETTY_FUNCTION__.resize = private unnamed_addr constant [18 x i8] c"void resize(void)\00", align 1
@.str.116 = private unnamed_addr constant [29 x i8] c"clamd_header && queue_header\00", align 1
@.str.117 = private unnamed_addr constant [35 x i8] c" COMMAND       QUEUEDSINCE    FILE\00", align 1
@.str.118 = private unnamed_addr constant [71 x i8] c"NO CONNTIME LIV IDL QUEUE  MAXQ   MEM ENGINE  DBVER DBTIME        HOST\00", align 1
@.str.119 = private unnamed_addr constant [19 x i8] c"multi_queue_header\00", align 1
@.str.120 = private unnamed_addr constant [35 x i8] c"NO COMMAND     QUEUEDSINCE    FILE\00", align 1

; Function Attrs: nounwind uwtable
define internal void @resize() #0 {
  %1 = alloca ptr, align 8
  %2 = alloca i32, align 4
  %3 = alloca i32, align 4
  %4 = load ptr, ptr @stdscr, align 8
  %5 = icmp ne ptr null, %4
  br i1 %5, label %6, label %12

6:                                                ; preds = %0
  %7 = load ptr, ptr @stdscr, align 8
  %8 = getelementptr inbounds %struct._win_st, ptr %7, i32 0, i32 2
  %9 = load i16, ptr %8, align 4
  %10 = sext i16 %9 to i32
  %11 = add nsw i32 %10, 1
  br label %13

12:                                               ; preds = %0
  br label %13

13:                                               ; preds = %12, %6
  %14 = phi i32 [ %11, %6 ], [ -1, %12 ]
  store i32 %14, ptr %2, align 4
  %15 = load ptr, ptr @stdscr, align 8
  %16 = icmp ne ptr null, %15
  br i1 %16, label %17, label %23

17:                                               ; preds = %13
  %18 = load ptr, ptr @stdscr, align 8
  %19 = getelementptr inbounds %struct._win_st, ptr %18, i32 0, i32 3
  %20 = load i16, ptr %19, align 2
  %21 = sext i16 %20 to i32
  %22 = add nsw i32 %21, 1
  br label %24

23:                                               ; preds = %13
  br label %24

24:                                               ; preds = %23, %17
  %25 = phi i32 [ %22, %17 ], [ -1, %23 ]
  store i32 %25, ptr %3, align 4
  %26 = load i32, ptr %2, align 4
  %27 = icmp eq i32 %26, -1
  br i1 %27, label %31, label %28

28:                                               ; preds = %24
  %29 = load i32, ptr %3, align 4
  %30 = icmp eq i32 %29, -1
  br i1 %30, label %31, label %34

31:                                               ; preds = %28, %24
  %32 = load ptr, ptr @stderr, align 8
  %33 = call i32 (ptr, ptr, ...) @fprintf(ptr noundef %32, ptr noundef @.str.115) #13
  br label %164

34:                                               ; preds = %28
  %35 = load i32, ptr %2, align 4
  %36 = load i32, ptr @maxy, align 4
  %37 = icmp eq i32 %35, %36
  br i1 %37, label %38, label %43

38:                                               ; preds = %34
  %39 = load i32, ptr %3, align 4
  %40 = load i32, ptr @maxx, align 4
  %41 = icmp eq i32 %39, %40
  br i1 %41, label %42, label %43

42:                                               ; preds = %38
  br label %164

43:                                               ; preds = %38, %34
  %44 = load i32, ptr %3, align 4
  store i32 %44, ptr @maxx, align 4
  %45 = load i32, ptr %2, align 4
  store i32 %45, ptr @maxy, align 4
  %46 = load ptr, ptr @queue_header, align 8
  call void @free(ptr noundef %46) #13
  %47 = load ptr, ptr @clamd_header, align 8
  call void @free(ptr noundef %47) #13
  %48 = load i32, ptr @maxx, align 4
  %49 = add i32 %48, 1
  %50 = zext i32 %49 to i64
  %51 = call noalias ptr @malloc(i64 noundef %50) #18
  store ptr %51, ptr @queue_header, align 8
  br label %52

52:                                               ; preds = %43
  %53 = load ptr, ptr @queue_header, align 8
  %54 = icmp ne ptr %53, null
  br i1 %54, label %56, label %55

55:                                               ; preds = %52
  call void @exit_program(i32 noundef 3, ptr noundef @__PRETTY_FUNCTION__.resize, i32 noundef 226)
  unreachable

56:                                               ; preds = %52
  br label %57

57:                                               ; preds = %56
  %58 = load i32, ptr @maxx, align 4
  %59 = add i32 %58, 1
  %60 = zext i32 %59 to i64
  %61 = call noalias ptr @malloc(i64 noundef %60) #18
  store ptr %61, ptr @clamd_header, align 8
  br label %62

62:                                               ; preds = %57
  %63 = load ptr, ptr @clamd_header, align 8
  %64 = icmp ne ptr %63, null
  br i1 %64, label %66, label %65

65:                                               ; preds = %62
  call void @exit_program(i32 noundef 3, ptr noundef @__PRETTY_FUNCTION__.resize, i32 noundef 228)
  unreachable

66:                                               ; preds = %62
  br label %67

67:                                               ; preds = %66
  %68 = load ptr, ptr @clamd_header, align 8
  %69 = icmp ne ptr %68, null
  br i1 %69, label %70, label %74

70:                                               ; preds = %67
  %71 = load ptr, ptr @queue_header, align 8
  %72 = icmp ne ptr %71, null
  br i1 %72, label %73, label %74

73:                                               ; preds = %70
  br label %75

74:                                               ; preds = %70, %67
  call void @__assert_fail(ptr noundef @.str.116, ptr noundef @.str.11, i32 noundef 229, ptr noundef @__PRETTY_FUNCTION__.resize) #17
  unreachable

75:                                               ; preds = %73
  %76 = load ptr, ptr @queue_header, align 8
  %77 = load i32, ptr @maxx, align 4
  %78 = zext i32 %77 to i64
  %79 = call ptr @strncpy(ptr noundef %76, ptr noundef @.str.117, i64 noundef %78) #13
  %80 = load ptr, ptr @clamd_header, align 8
  %81 = load i32, ptr @maxx, align 4
  %82 = zext i32 %81 to i64
  %83 = call ptr @strncpy(ptr noundef %80, ptr noundef @.str.118, i64 noundef %82) #13
  %84 = load ptr, ptr @queue_header, align 8
  %85 = load i32, ptr @maxx, align 4
  %86 = zext i32 %85 to i64
  %87 = getelementptr inbounds i8, ptr %84, i64 %86
  store i8 0, ptr %87, align 1
  %88 = load ptr, ptr @clamd_header, align 8
  %89 = load i32, ptr @maxx, align 4
  %90 = zext i32 %89 to i64
  %91 = getelementptr inbounds i8, ptr %88, i64 %90
  store i8 0, ptr %91, align 1
  %92 = load ptr, ptr @queue_header, align 8
  %93 = load ptr, ptr @queue_header, align 8
  %94 = call i64 @strlen(ptr noundef %93) #14
  %95 = getelementptr inbounds i8, ptr %92, i64 %94
  store ptr %95, ptr %1, align 8
  br label %96

96:                                               ; preds = %103, %75
  %97 = load ptr, ptr %1, align 8
  %98 = load ptr, ptr @queue_header, align 8
  %99 = load i32, ptr @maxx, align 4
  %100 = zext i32 %99 to i64
  %101 = getelementptr inbounds i8, ptr %98, i64 %100
  %102 = icmp ult ptr %97, %101
  br i1 %102, label %103, label %106

103:                                              ; preds = %96
  %104 = load ptr, ptr %1, align 8
  %105 = getelementptr inbounds i8, ptr %104, i32 1
  store ptr %105, ptr %1, align 8
  store i8 32, ptr %104, align 1
  br label %96

106:                                              ; preds = %96
  %107 = load ptr, ptr @clamd_header, align 8
  %108 = load ptr, ptr @clamd_header, align 8
  %109 = call i64 @strlen(ptr noundef %108) #14
  %110 = getelementptr inbounds i8, ptr %107, i64 %109
  store ptr %110, ptr %1, align 8
  br label %111

111:                                              ; preds = %118, %106
  %112 = load ptr, ptr %1, align 8
  %113 = load ptr, ptr @clamd_header, align 8
  %114 = load i32, ptr @maxx, align 4
  %115 = zext i32 %114 to i64
  %116 = getelementptr inbounds i8, ptr %113, i64 %115
  %117 = icmp ult ptr %112, %116
  br i1 %117, label %118, label %121

118:                                              ; preds = %111
  %119 = load ptr, ptr %1, align 8
  %120 = getelementptr inbounds i8, ptr %119, i32 1
  store ptr %120, ptr %1, align 8
  store i8 32, ptr %119, align 1
  br label %111

121:                                              ; preds = %111
  %122 = load i64, ptr getelementptr inbounds (%struct.global_stats, ptr @global, i32 0, i32 3), align 8
  %123 = icmp ugt i64 %122, 1
  br i1 %123, label %124, label %164

124:                                              ; preds = %121
  %125 = load ptr, ptr @multi_queue_header, align 8
  call void @free(ptr noundef %125) #13
  %126 = load i32, ptr @maxx, align 4
  %127 = add i32 %126, 1
  %128 = zext i32 %127 to i64
  %129 = call noalias ptr @malloc(i64 noundef %128) #18
  store ptr %129, ptr @multi_queue_header, align 8
  br label %130

130:                                              ; preds = %124
  %131 = load ptr, ptr @multi_queue_header, align 8
  %132 = icmp ne ptr %131, null
  br i1 %132, label %134, label %133

133:                                              ; preds = %130
  call void @exit_program(i32 noundef 3, ptr noundef @__PRETTY_FUNCTION__.resize, i32 noundef 243)
  unreachable

134:                                              ; preds = %130
  br label %135

135:                                              ; preds = %134
  %136 = load ptr, ptr @multi_queue_header, align 8
  %137 = icmp ne ptr %136, null
  br i1 %137, label %138, label %139

138:                                              ; preds = %135
  br label %140

139:                                              ; preds = %135
  call void @__assert_fail(ptr noundef @.str.119, ptr noundef @.str.11, i32 noundef 244, ptr noundef @__PRETTY_FUNCTION__.resize) #17
  unreachable

140:                                              ; preds = %138
  %141 = load ptr, ptr @multi_queue_header, align 8
  %142 = load i32, ptr @maxx, align 4
  %143 = zext i32 %142 to i64
  %144 = call ptr @strncpy(ptr noundef %141, ptr noundef @.str.120, i64 noundef %143) #13
  %145 = load ptr, ptr @multi_queue_header, align 8
  %146 = load i32, ptr @maxx, align 4
  %147 = zext i32 %146 to i64
  %148 = getelementptr inbounds i8, ptr %145, i64 %147
  store i8 0, ptr %148, align 1
  %149 = load ptr, ptr @multi_queue_header, align 8
  %150 = load ptr, ptr @multi_queue_header, align 8
  %151 = call i64 @strlen(ptr noundef %150) #14
  %152 = getelementptr inbounds i8, ptr %149, i64 %151
  store ptr %152, ptr %1, align 8
  br label %153

153:                                              ; preds = %160, %140
  %154 = load ptr, ptr %1, align 8
  %155 = load ptr, ptr @multi_queue_header, align 8
  %156 = load i32, ptr @maxx, align 4
  %157 = zext i32 %156 to i64
  %158 = getelementptr inbounds i8, ptr %155, i64 %157
  %159 = icmp ult ptr %154, %158
  br i1 %159, label %160, label %163

160:                                              ; preds = %153
  %161 = load ptr, ptr %1, align 8
  %162 = getelementptr inbounds i8, ptr %161, i32 1
  store ptr %162, ptr %1, align 8
  store i8 32, ptr %161, align 1
  br label %153

163:                                              ; preds = %153
  br label %164

164:                                              ; preds = %163, %121, %42, %31
  ret void
}