; Function Attrs: nounwind uwtable
define internal fastcc void @resize() unnamed_addr #0 {
  %1 = load ptr, ptr @stdscr, align 8
  %.not = icmp eq ptr %1, null
  br i1 %.not, label %.thread27, label %2

2:                                                ; preds = %0
  %3 = getelementptr inbounds i8, ptr %1, i64 4
  %4 = load i16, ptr %3, align 4
  %5 = sext i16 %4 to i32
  %6 = add nsw i32 %5, 1
  %7 = getelementptr inbounds i8, ptr %1, i64 6
  %8 = load i16, ptr %7, align 2
  %9 = sext i16 %8 to i32
  %10 = add nsw i32 %9, 1
  %11 = icmp eq i32 %6, -1
  %12 = icmp eq i32 %10, -1
  %or.cond = select i1 %11, i1 true, i1 %12
  br i1 %or.cond, label %.thread27, label %15

.thread27:                                        ; preds = %0, %2
  %13 = load ptr, ptr @stderr, align 8
  %14 = tail call i64 @fwrite(ptr nonnull @.str.115, i64 28, i64 1, ptr %13) #28
  br label %.loopexit

15:                                               ; preds = %2
  %16 = load i32, ptr @maxy, align 4
  %17 = icmp eq i32 %6, %16
  %18 = load i32, ptr @maxx, align 4
  %19 = icmp eq i32 %10, %18
  %or.cond26 = select i1 %17, i1 %19, i1 false
  br i1 %or.cond26, label %.loopexit, label %20

20:                                               ; preds = %15
  store i32 %10, ptr @maxx, align 4
  store i32 %6, ptr @maxy, align 4
  %21 = load ptr, ptr @queue_header, align 8
  tail call void @free(ptr noundef %21) #25
  %22 = load ptr, ptr @clamd_header, align 8
  tail call void @free(ptr noundef %22) #25
  %23 = add nsw i32 %9, 2
  %24 = zext i32 %23 to i64
  %25 = tail call noalias ptr @malloc(i64 noundef %24) #34
  %26 = ptrtoint ptr %25 to i64
  store ptr %25, ptr @queue_header, align 8
  %.not21 = icmp eq ptr %25, null
  br i1 %.not21, label %27, label %28

27:                                               ; preds = %20
  tail call fastcc void @exit_program(i32 noundef 3, ptr noundef nonnull @__PRETTY_FUNCTION__.resize, i32 noundef 226)
  unreachable

28:                                               ; preds = %20
  %29 = tail call noalias ptr @malloc(i64 noundef %24) #34
  %30 = ptrtoint ptr %29 to i64
  store ptr %29, ptr @clamd_header, align 8
  %.not22 = icmp eq ptr %29, null
  br i1 %.not22, label %31, label %32

31:                                               ; preds = %28
  tail call fastcc void @exit_program(i32 noundef 3, ptr noundef nonnull @__PRETTY_FUNCTION__.resize, i32 noundef 228)
  unreachable

32:                                               ; preds = %28
  %33 = zext i32 %10 to i64
  %34 = tail call ptr @strncpy(ptr noundef nonnull %25, ptr noundef nonnull dereferenceable(35) @.str.117, i64 noundef %33) #25
  %35 = tail call ptr @strncpy(ptr noundef nonnull %29, ptr noundef nonnull dereferenceable(71) @.str.118, i64 noundef %33) #25
  %36 = getelementptr inbounds i8, ptr %25, i64 %33
  store i8 0, ptr %36, align 1
  %37 = getelementptr inbounds i8, ptr %29, i64 %33
  store i8 0, ptr %37, align 1
  %38 = tail call i64 @strlen(ptr noundef nonnull dereferenceable(1) %25) #26
  %39 = icmp slt i64 %38, %33
  br i1 %39, label %.lr.ph.preheader, label %._crit_edge

.lr.ph.preheader:                                 ; preds = %32
  %40 = getelementptr i8, ptr %25, i64 %38
  %41 = add i64 %38, %26
  %42 = add i64 %41, 1
  %43 = add i64 %26, %33
  %umax = tail call i64 @llvm.umax.i64(i64 %42, i64 %43)
  %44 = add i64 %38, %26
  %45 = sub i64 %umax, %44
  tail call void @llvm.memset.p0.i64(ptr align 1 %40, i8 32, i64 %45, i1 false)
  br label %._crit_edge

._crit_edge:                                      ; preds = %.lr.ph.preheader, %32
  %46 = tail call i64 @strlen(ptr noundef nonnull dereferenceable(1) %29) #26
  %47 = icmp slt i64 %46, %33
  br i1 %47, label %.lr.ph32.preheader, label %._crit_edge33

.lr.ph32.preheader:                               ; preds = %._crit_edge
  %48 = getelementptr i8, ptr %29, i64 %46
  %49 = add i64 %46, %30
  %50 = add i64 %49, 1
  %51 = add i64 %30, %33
  %umax37 = tail call i64 @llvm.umax.i64(i64 %50, i64 %51)
  %52 = add i64 %46, %30
  %53 = sub i64 %umax37, %52
  tail call void @llvm.memset.p0.i64(ptr align 1 %48, i8 32, i64 %53, i1 false)
  br label %._crit_edge33

._crit_edge33:                                    ; preds = %.lr.ph32.preheader, %._crit_edge
  %54 = load i64, ptr getelementptr inbounds (%struct.global_stats, ptr @global, i64 0, i32 3), align 8
  %55 = icmp ugt i64 %54, 1
  br i1 %55, label %56, label %.loopexit

56:                                               ; preds = %._crit_edge33
  %57 = load ptr, ptr @multi_queue_header, align 8
  tail call void @free(ptr noundef %57) #25
  %58 = tail call noalias ptr @malloc(i64 noundef %24) #34
  %59 = ptrtoint ptr %58 to i64
  store ptr %58, ptr @multi_queue_header, align 8
  %.not24 = icmp eq ptr %58, null
  br i1 %.not24, label %60, label %61

60:                                               ; preds = %56
  tail call fastcc void @exit_program(i32 noundef 3, ptr noundef nonnull @__PRETTY_FUNCTION__.resize, i32 noundef 243)
  unreachable

61:                                               ; preds = %56
  %62 = tail call ptr @strncpy(ptr noundef nonnull %58, ptr noundef nonnull dereferenceable(35) @.str.120, i64 noundef %33) #25
  %63 = getelementptr inbounds i8, ptr %58, i64 %33
  store i8 0, ptr %63, align 1
  %64 = tail call i64 @strlen(ptr noundef nonnull dereferenceable(1) %58) #26
  %65 = icmp slt i64 %64, %33
  br i1 %65, label %.lr.ph36.preheader, label %.loopexit

.lr.ph36.preheader:                               ; preds = %61
  %66 = getelementptr i8, ptr %58, i64 %64
  %67 = add i64 %64, %59
  %68 = add i64 %67, 1
  %69 = add i64 %59, %33
  %umax38 = tail call i64 @llvm.umax.i64(i64 %68, i64 %69)
  %70 = add i64 %64, %59
  %71 = sub i64 %umax38, %70
  tail call void @llvm.memset.p0.i64(ptr align 1 %66, i8 32, i64 %71, i1 false)
  br label %.loopexit

.loopexit:                                        ; preds = %.lr.ph36.preheader, %61, %15, %._crit_edge33, %.thread27
  ret void
}